; Function Attrs: mustprogress nofree norecurse nosync nounwind willreturn memory(read, inaccessiblemem: none) uwtable
define ptr @If_DsdManGetFuncConfig(ptr noundef readonly captures(none) %0, i32 noundef %1) local_unnamed_addr #2 {
  %3 = getelementptr inbounds nuw i8, ptr %0, i64 632
  %4 = load ptr, ptr %3, align 8, !tbaa !27
  %.not = icmp eq ptr %4, null
  br i1 %.not, label %13, label %5

5:                                                ; preds = %2
  %6 = getelementptr inbounds nuw i8, ptr %0, i64 628
  %7 = load i32, ptr %6, align 4, !tbaa !28
  %8 = ashr i32 %1, 1
  %9 = mul nsw i32 %7, %8
  %10 = getelementptr i8, ptr %4, i64 8
  %.val = load ptr, ptr %10, align 8, !tbaa !29
  %11 = sext i32 %9 to i64
  %12 = getelementptr inbounds i64, ptr %.val, i64 %11
  br label %13

13:                                               ; preds = %2, %5
  %14 = phi ptr [ %12, %5 ], [ null, %2 ]
  ret ptr %14
}